target datalayout = "e-m:e-p270:32:32-p271:32:32-p272:64:64-i64:64-i128:128-f80:128-n8:16:32:64-S128"
target triple = "x86_64-pc-linux-gnu"

%"class.std::basic_string_view" = type { i64, ptr }
%"class.mold::MultiGlob" = type <{ %"class.std::vector.0", %"class.std::unique_ptr", %"class.std::vector.7", %"struct.std::once_flag", i8, i8, [2 x i8] }>
%"class.std::vector.0" = type { %"struct.std::_Vector_base.1" }
%"struct.std::_Vector_base.1" = type { %"struct.std::_Vector_base<std::__cxx11::basic_string<char>, std::allocator<std::__cxx11::basic_string<char>>>::_Vector_impl" }
%"struct.std::_Vector_base<std::__cxx11::basic_string<char>, std::allocator<std::__cxx11::basic_string<char>>>::_Vector_impl" = type { %"struct.std::_Vector_base<std::__cxx11::basic_string<char>, std::allocator<std::__cxx11::basic_string<char>>>::_Vector_impl_data" }
%"struct.std::_Vector_base<std::__cxx11::basic_string<char>, std::allocator<std::__cxx11::basic_string<char>>>::_Vector_impl_data" = type { ptr, ptr, ptr }
%"class.std::unique_ptr" = type { %"struct.std::__uniq_ptr_data" }
%"struct.std::__uniq_ptr_data" = type { %"class.std::__uniq_ptr_impl" }
%"class.std::__uniq_ptr_impl" = type { %"class.std::tuple" }
%"class.std::tuple" = type { %"struct.std::_Tuple_impl" }
%"struct.std::_Tuple_impl" = type { %"struct.std::_Head_base.6" }
%"struct.std::_Head_base.6" = type { ptr }
%"class.std::vector.7" = type { %"struct.std::_Vector_base.8" }
%"struct.std::_Vector_base.8" = type { %"struct.std::_Vector_base<std::pair<mold::Glob, long>, std::allocator<std::pair<mold::Glob, long>>>::_Vector_impl" }
%"struct.std::_Vector_base<std::pair<mold::Glob, long>, std::allocator<std::pair<mold::Glob, long>>>::_Vector_impl" = type { %"struct.std::_Vector_base<std::pair<mold::Glob, long>, std::allocator<std::pair<mold::Glob, long>>>::_Vector_impl_data" }
%"struct.std::_Vector_base<std::pair<mold::Glob, long>, std::allocator<std::pair<mold::Glob, long>>>::_Vector_impl_data" = type { ptr, ptr, ptr }
%"struct.std::once_flag" = type { i32 }
%class.anon.17 = type { ptr, ptr }
%"struct.mold::MultiGlob::TrieNode" = type { i64, ptr, [256 x %"class.std::unique_ptr"] }

; Function Attrs: mustprogress nounwind
define linkonce_odr dso_local noundef nonnull align 8 dereferenceable(8) ptr @_ZNSt10_Head_baseILm0EPN4mold9MultiGlob8TrieNodeELb0EE7_M_headERKS4_(ptr noundef nonnull align 8 dereferenceable(8) %0) #4 comdat align 2 {
  %2 = alloca ptr, align 8
  store ptr %0, ptr %2, align 8, !tbaa !1168
  %3 = load ptr, ptr %2, align 8, !tbaa !1168
  %4 = getelementptr inbounds nuw %"struct.std::_Head_base.6", ptr %3, i32 0, i32 0
  ret ptr %4
}

; Function Attrs: mustprogress nounwind
define linkonce_odr dso_local noundef nonnull align 8 dereferenceable(8) ptr @_ZNSt11_Tuple_implILm0EJPN4mold9MultiGlob8TrieNodeESt14default_deleteIS2_EEE7_M_headERKS6_(ptr noundef nonnull align 8 dereferenceable(8) %0) #4 comdat align 2 {
  %2 = alloca ptr, align 8
  store ptr %0, ptr %2, align 8, !tbaa !1164
  %3 = load ptr, ptr %2, align 8, !tbaa !1164
  %4 = call noundef nonnull align 8 dereferenceable(8) ptr @_ZNSt10_Head_baseILm0EPN4mold9MultiGlob8TrieNodeELb0EE7_M_headERKS4_(ptr noundef nonnull align 8 dereferenceable(8) %3) #3
  ret ptr %4
}

; Function Attrs: mustprogress nounwind
define linkonce_odr dso_local noundef nonnull align 8 dereferenceable(8) ptr @_ZSt12__get_helperILm0EPN4mold9MultiGlob8TrieNodeEJSt14default_deleteIS2_EEERKT0_RKSt11_Tuple_implIXT_EJS6_DpT1_EE(ptr noundef nonnull align 8 dereferenceable(8) %0) #4 comdat {
  %2 = alloca ptr, align 8
  store ptr %0, ptr %2, align 8, !tbaa !1164
  %3 = load ptr, ptr %2, align 8, !tbaa !1164
  %4 = call noundef nonnull align 8 dereferenceable(8) ptr @_ZNSt11_Tuple_implILm0EJPN4mold9MultiGlob8TrieNodeESt14default_deleteIS2_EEE7_M_headERKS6_(ptr noundef nonnull align 8 dereferenceable(8) %3) #3
  ret ptr %4
}

; Function Attrs: mustprogress nounwind
define linkonce_odr dso_local noundef nonnull align 8 dereferenceable(8) ptr @_ZSt3getILm0EJPN4mold9MultiGlob8TrieNodeESt14default_deleteIS2_EEERKNSt13tuple_elementIXT_ESt5tupleIJDpT0_EEE4typeERKSA_(ptr noundef nonnull align 8 dereferenceable(8) %0) #4 comdat {
  %2 = alloca ptr, align 8
  store ptr %0, ptr %2, align 8, !tbaa !1162
  %3 = load ptr, ptr %2, align 8, !tbaa !1162
  %4 = call noundef nonnull align 8 dereferenceable(8) ptr @_ZSt12__get_helperILm0EPN4mold9MultiGlob8TrieNodeEJSt14default_deleteIS2_EEERKT0_RKSt11_Tuple_implIXT_EJS6_DpT1_EE(ptr noundef nonnull align 8 dereferenceable(8) %3) #3
  ret ptr %4
}

; Function Attrs: inlinehint mustprogress nounwind
define linkonce_odr dso_local noundef nonnull align 8 dereferenceable(8) ptr @_ZSt3maxIlERKT_S2_S2_(ptr noundef nonnull align 8 dereferenceable(8) %0, ptr noundef nonnull align 8 dereferenceable(8) %1) #7 comdat {
  %3 = alloca ptr, align 8
  %4 = alloca ptr, align 8
  %5 = alloca ptr, align 8
  store ptr %0, ptr %4, align 8, !tbaa !37
  store ptr %1, ptr %5, align 8, !tbaa !37
  %6 = load ptr, ptr %4, align 8, !tbaa !37
  %7 = load i64, ptr %6, align 8, !tbaa !17
  %8 = load ptr, ptr %5, align 8, !tbaa !37
  %9 = load i64, ptr %8, align 8, !tbaa !17
  %10 = icmp slt i64 %7, %9
  br i1 %10, label %11, label %13

11:                                               ; preds = %2
  %12 = load ptr, ptr %5, align 8, !tbaa !37
  store ptr %12, ptr %3, align 8
  br label %15

13:                                               ; preds = %2
  %14 = load ptr, ptr %4, align 8, !tbaa !37
  store ptr %14, ptr %3, align 8
  br label %15

15:                                               ; preds = %13, %11
  %16 = load ptr, ptr %3, align 8
  ret ptr %16
}

; Function Attrs: mustprogress nounwind
define linkonce_odr dso_local noundef zeroext i1 @_ZNKSt10unique_ptrIN4mold9MultiGlob8TrieNodeESt14default_deleteIS2_EEcvbEv(ptr noundef nonnull align 8 dereferenceable(8) %0) #4 comdat align 2 {
  %2 = alloca ptr, align 8
  store ptr %0, ptr %2, align 8, !tbaa !31
  %3 = load ptr, ptr %2, align 8
  %4 = call noundef ptr @_ZNKSt10unique_ptrIN4mold9MultiGlob8TrieNodeESt14default_deleteIS2_EE3getEv(ptr noundef nonnull align 8 dereferenceable(8) %3) #3
  %5 = icmp eq ptr %4, null
  %6 = select i1 %5, i1 false, i1 true
  ret i1 %6
}

; Function Attrs: mustprogress nounwind
define linkonce_odr dso_local noundef ptr @_ZNKSt15__uniq_ptr_implIN4mold9MultiGlob8TrieNodeESt14default_deleteIS2_EE6_M_ptrEv(ptr noundef nonnull align 8 dereferenceable(8) %0) #4 comdat align 2 {
  %2 = alloca ptr, align 8
  store ptr %0, ptr %2, align 8, !tbaa !1160
  %3 = load ptr, ptr %2, align 8
  %4 = getelementptr inbounds nuw %"class.std::__uniq_ptr_impl", ptr %3, i32 0, i32 0
  %5 = call noundef nonnull align 8 dereferenceable(8) ptr @_ZSt3getILm0EJPN4mold9MultiGlob8TrieNodeESt14default_deleteIS2_EEERKNSt13tuple_elementIXT_ESt5tupleIJDpT0_EEE4typeERKSA_(ptr noundef nonnull align 8 dereferenceable(8) %4) #3
  %6 = load ptr, ptr %5, align 8, !tbaa !33
  ret ptr %6
}

; Function Attrs: mustprogress nounwind
define linkonce_odr dso_local noundef ptr @_ZNKSt17basic_string_viewIcSt11char_traitsIcEE3endEv(ptr noundef nonnull align 8 dereferenceable(16) %0) #4 comdat align 2 {
  %2 = alloca ptr, align 8
  store ptr %0, ptr %2, align 8, !tbaa !39
  %3 = load ptr, ptr %2, align 8
  %4 = getelementptr inbounds nuw %"class.std::basic_string_view", ptr %3, i32 0, i32 1
  %5 = load ptr, ptr %4, align 8, !tbaa !76
  %6 = getelementptr inbounds nuw %"class.std::basic_string_view", ptr %3, i32 0, i32 0
  %7 = load i64, ptr %6, align 8, !tbaa !78
  %8 = getelementptr inbounds nuw i8, ptr %5, i64 %7
  ret ptr %8
}

; Function Attrs: mustprogress nounwind
define linkonce_odr dso_local noundef ptr @_ZNKSt17basic_string_viewIcSt11char_traitsIcEE5beginEv(ptr noundef nonnull align 8 dereferenceable(16) %0) #4 comdat align 2 {
  %2 = alloca ptr, align 8
  store ptr %0, ptr %2, align 8, !tbaa !39
  %3 = load ptr, ptr %2, align 8
  %4 = getelementptr inbounds nuw %"class.std::basic_string_view", ptr %3, i32 0, i32 1
  %5 = load ptr, ptr %4, align 8, !tbaa !76
  ret ptr %5
}

; Function Attrs: inlinehint mustprogress nounwind
define internal void @"_ZZN4mold9MultiGlob17find_aho_corasickESt17basic_string_viewIcSt11char_traitsIcEEENK3$_0clEh"(ptr noundef nonnull align 8 dereferenceable(16) %0, i8 noundef zeroext %1) #7 align 2 {
  %3 = alloca ptr, align 8
  %4 = alloca i8, align 1
  store ptr %0, ptr %3, align 8, !tbaa !28
  store i8 %1, ptr %4, align 1, !tbaa !41
  %5 = load ptr, ptr %3, align 8
  br label %6

6:                                                ; preds = %44, %2
  %7 = getelementptr inbounds nuw %class.anon.17, ptr %5, i32 0, i32 0
  %8 = load ptr, ptr %7, align 8, !tbaa !69
  %9 = load ptr, ptr %8, align 8, !tbaa !33
  %10 = getelementptr inbounds nuw %"struct.mold::MultiGlob::TrieNode", ptr %9, i32 0, i32 2
  %11 = load i8, ptr %4, align 1, !tbaa !41
  %12 = zext i8 %11 to i64
  %13 = getelementptr inbounds nuw [256 x %"class.std::unique_ptr"], ptr %10, i64 0, i64 %12
  %14 = call noundef zeroext i1 @_ZNKSt10unique_ptrIN4mold9MultiGlob8TrieNodeESt14default_deleteIS2_EEcvbEv(ptr noundef nonnull align 8 dereferenceable(8) %13) #3
  br i1 %14, label %15, label %36

15:                                               ; preds = %6
  %16 = getelementptr inbounds nuw %class.anon.17, ptr %5, i32 0, i32 0
  %17 = load ptr, ptr %16, align 8, !tbaa !69
  %18 = load ptr, ptr %17, align 8, !tbaa !33
  %19 = getelementptr inbounds nuw %"struct.mold::MultiGlob::TrieNode", ptr %18, i32 0, i32 2
  %20 = load i8, ptr %4, align 1, !tbaa !41
  %21 = zext i8 %20 to i64
  %22 = getelementptr inbounds nuw [256 x %"class.std::unique_ptr"], ptr %19, i64 0, i64 %21
  %23 = call noundef ptr @_ZNKSt10unique_ptrIN4mold9MultiGlob8TrieNodeESt14default_deleteIS2_EE3getEv(ptr noundef nonnull align 8 dereferenceable(8) %22) #3
  %24 = getelementptr inbounds nuw %class.anon.17, ptr %5, i32 0, i32 0
  %25 = load ptr, ptr %24, align 8, !tbaa !69
  store ptr %23, ptr %25, align 8, !tbaa !33
  %26 = getelementptr inbounds nuw %class.anon.17, ptr %5, i32 0, i32 1
  %27 = load ptr, ptr %26, align 8, !tbaa !71
  %28 = getelementptr inbounds nuw %class.anon.17, ptr %5, i32 0, i32 0
  %29 = load ptr, ptr %28, align 8, !tbaa !69
  %30 = load ptr, ptr %29, align 8, !tbaa !33
  %31 = getelementptr inbounds nuw %"struct.mold::MultiGlob::TrieNode", ptr %30, i32 0, i32 0
  %32 = call noundef nonnull align 8 dereferenceable(8) ptr @_ZSt3maxIlERKT_S2_S2_(ptr noundef nonnull align 8 dereferenceable(8) %27, ptr noundef nonnull align 8 dereferenceable(8) %31)
  %33 = load i64, ptr %32, align 8, !tbaa !17
  %34 = getelementptr inbounds nuw %class.anon.17, ptr %5, i32 0, i32 1
  %35 = load ptr, ptr %34, align 8, !tbaa !71
  store i64 %33, ptr %35, align 8, !tbaa !17
  br label %52

36:                                               ; preds = %6
  %37 = getelementptr inbounds nuw %class.anon.17, ptr %5, i32 0, i32 0
  %38 = load ptr, ptr %37, align 8, !tbaa !69
  %39 = load ptr, ptr %38, align 8, !tbaa !33
  %40 = getelementptr inbounds nuw %"struct.mold::MultiGlob::TrieNode", ptr %39, i32 0, i32 1
  %41 = load ptr, ptr %40, align 8, !tbaa !72
  %42 = icmp ne ptr %41, null
  br i1 %42, label %44, label %43

43:                                               ; preds = %36
  br label %52

44:                                               ; preds = %36
  %45 = getelementptr inbounds nuw %class.anon.17, ptr %5, i32 0, i32 0
  %46 = load ptr, ptr %45, align 8, !tbaa !69
  %47 = load ptr, ptr %46, align 8, !tbaa !33
  %48 = getelementptr inbounds nuw %"struct.mold::MultiGlob::TrieNode", ptr %47, i32 0, i32 1
  %49 = load ptr, ptr %48, align 8, !tbaa !72
  %50 = getelementptr inbounds nuw %class.anon.17, ptr %5, i32 0, i32 0
  %51 = load ptr, ptr %50, align 8, !tbaa !69
  store ptr %49, ptr %51, align 8, !tbaa !33
  br label %6, !llvm.loop !74

52:                                               ; preds = %43, %15
  ret void
}

; Function Attrs: mustprogress nounwind
define linkonce_odr dso_local noundef ptr @_ZNKSt10unique_ptrIN4mold9MultiGlob8TrieNodeESt14default_deleteIS2_EE3getEv(ptr noundef nonnull align 8 dereferenceable(8) %0) #4 comdat align 2 {
  %2 = alloca ptr, align 8
  store ptr %0, ptr %2, align 8, !tbaa !31
  %3 = load ptr, ptr %2, align 8
  %4 = getelementptr inbounds nuw %"class.std::unique_ptr", ptr %3, i32 0, i32 0
  %5 = call noundef ptr @_ZNKSt15__uniq_ptr_implIN4mold9MultiGlob8TrieNodeESt14default_deleteIS2_EE6_M_ptrEv(ptr noundef nonnull align 8 dereferenceable(8) %4) #3
  ret ptr %5
}

; Function Attrs: mustprogress nounwind
define dso_local noundef i64 @_ZN4mold9MultiGlob17find_aho_corasickESt17basic_string_viewIcSt11char_traitsIcEE(ptr noundef nonnull align 8 dereferenceable(62) %0, i64 %1, ptr %2) #4 align 2 {
  %4 = alloca i64, align 8
  %5 = alloca %"class.std::basic_string_view", align 8
  %6 = alloca ptr, align 8
  %7 = alloca ptr, align 8
  %8 = alloca i64, align 8
  %9 = alloca %class.anon.17, align 8
  %10 = alloca ptr, align 8
  %11 = alloca ptr, align 8
  %12 = alloca ptr, align 8
  %13 = alloca i32, align 4
  %14 = alloca i8, align 1
  %15 = getelementptr inbounds nuw { i64, ptr }, ptr %5, i32 0, i32 0
  store i64 %1, ptr %15, align 8
  %16 = getelementptr inbounds nuw { i64, ptr }, ptr %5, i32 0, i32 1
  store ptr %2, ptr %16, align 8
  store ptr %0, ptr %6, align 8, !tbaa !13
  %17 = load ptr, ptr %6, align 8
  call void @llvm.lifetime.start.p0(i64 8, ptr %7) #3
  %18 = getelementptr inbounds nuw %"class.mold::MultiGlob", ptr %17, i32 0, i32 1
  %19 = call noundef ptr @_ZNKSt10unique_ptrIN4mold9MultiGlob8TrieNodeESt14default_deleteIS2_EE3getEv(ptr noundef nonnull align 8 dereferenceable(8) %18) #3
  store ptr %19, ptr %7, align 8, !tbaa !33
  call void @llvm.lifetime.start.p0(i64 8, ptr %8) #3
  store i64 -1, ptr %8, align 8, !tbaa !17
  call void @llvm.lifetime.start.p0(i64 16, ptr %9) #3
  %20 = getelementptr inbounds nuw %class.anon.17, ptr %9, i32 0, i32 0
  store ptr %7, ptr %20, align 8, !tbaa !35
  %21 = getelementptr inbounds nuw %class.anon.17, ptr %9, i32 0, i32 1
  store ptr %8, ptr %21, align 8, !tbaa !37
  call void @"_ZZN4mold9MultiGlob17find_aho_corasickESt17basic_string_viewIcSt11char_traitsIcEEENK3$_0clEh"(ptr noundef nonnull align 8 dereferenceable(16) %9, i8 noundef zeroext 0)
  call void @llvm.lifetime.start.p0(i64 8, ptr %10) #3
  store ptr %5, ptr %10, align 8, !tbaa !39
  call void @llvm.lifetime.start.p0(i64 8, ptr %11) #3
  %22 = load ptr, ptr %10, align 8, !tbaa !39
  %23 = call noundef ptr @_ZNKSt17basic_string_viewIcSt11char_traitsIcEE5beginEv(ptr noundef nonnull align 8 dereferenceable(16) %22) #3
  store ptr %23, ptr %11, align 8, !tbaa !20
  call void @llvm.lifetime.start.p0(i64 8, ptr %12) #3
  %24 = load ptr, ptr %10, align 8, !tbaa !39
  %25 = call noundef ptr @_ZNKSt17basic_string_viewIcSt11char_traitsIcEE3endEv(ptr noundef nonnull align 8 dereferenceable(16) %24) #3
  store ptr %25, ptr %12, align 8, !tbaa !20
  br label %26

26:                                               ; preds = %49, %3
  %27 = load ptr, ptr %11, align 8, !tbaa !20
  %28 = load ptr, ptr %12, align 8, !tbaa !20
  %29 = icmp ne ptr %27, %28
  br i1 %29, label %31, label %30

30:                                               ; preds = %26
  store i32 2, ptr %13, align 4
  br label %52

31:                                               ; preds = %26
  call void @llvm.lifetime.start.p0(i64 1, ptr %14) #3
  %32 = load ptr, ptr %11, align 8, !tbaa !20
  %33 = load i8, ptr %32, align 1, !tbaa !41
  store i8 %33, ptr %14, align 1, !tbaa !41
  %34 = getelementptr inbounds nuw %"class.mold::MultiGlob", ptr %17, i32 0, i32 5
  %35 = load i8, ptr %34, align 1, !tbaa !42, !range !61, !noundef !62
  %36 = trunc i8 %35 to i1
  br i1 %36, label %37, label %44

37:                                               ; preds = %31
  %38 = load ptr, ptr %7, align 8, !tbaa !33
  %39 = getelementptr inbounds nuw %"class.mold::MultiGlob", ptr %17, i32 0, i32 1
  %40 = call noundef ptr @_ZNKSt10unique_ptrIN4mold9MultiGlob8TrieNodeESt14default_deleteIS2_EE3getEv(ptr noundef nonnull align 8 dereferenceable(8) %39) #3
  %41 = icmp eq ptr %38, %40
  br i1 %41, label %42, label %44

42:                                               ; preds = %37
  %43 = load i64, ptr %8, align 8, !tbaa !17
  store i64 %43, ptr %4, align 8
  store i32 1, ptr %13, align 4
  br label %46

44:                                               ; preds = %37, %31
  %45 = load i8, ptr %14, align 1, !tbaa !41
  call void @"_ZZN4mold9MultiGlob17find_aho_corasickESt17basic_string_viewIcSt11char_traitsIcEEENK3$_0clEh"(ptr noundef nonnull align 8 dereferenceable(16) %9, i8 noundef zeroext %45)
  store i32 0, ptr %13, align 4
  br label %46

46:                                               ; preds = %44, %42
  call void @llvm.lifetime.end.p0(i64 1, ptr %14) #3
  %47 = load i32, ptr %13, align 4
  switch i32 %47, label %52 [
    i32 0, label %48
  ]

48:                                               ; preds = %46
  br label %49

49:                                               ; preds = %48
  %50 = load ptr, ptr %11, align 8, !tbaa !20
  %51 = getelementptr inbounds nuw i8, ptr %50, i32 1
  store ptr %51, ptr %11, align 8, !tbaa !20
  br label %26

52:                                               ; preds = %46, %30
  call void @llvm.lifetime.end.p0(i64 8, ptr %12) #3
  call void @llvm.lifetime.end.p0(i64 8, ptr %11) #3
  call void @llvm.lifetime.end.p0(i64 8, ptr %10) #3
  %53 = load i32, ptr %13, align 4
  switch i32 %53, label %56 [
    i32 2, label %54
  ]

54:                                               ; preds = %52
  call void @"_ZZN4mold9MultiGlob17find_aho_corasickESt17basic_string_viewIcSt11char_traitsIcEEENK3$_0clEh"(ptr noundef nonnull align 8 dereferenceable(16) %9, i8 noundef zeroext 0)
  %55 = load i64, ptr %8, align 8, !tbaa !17
  store i64 %55, ptr %4, align 8
  store i32 1, ptr %13, align 4
  br label %56

56:                                               ; preds = %54, %52
  call void @llvm.lifetime.end.p0(i64 16, ptr %9) #3
  call void @llvm.lifetime.end.p0(i64 8, ptr %8) #3
  call void @llvm.lifetime.end.p0(i64 8, ptr %7) #3
  %57 = load i64, ptr %4, align 8
  ret i64 %57
}