; Function Attrs: mustprogress nofree norecurse nosync nounwind willreturn memory(read, inaccessiblemem: none)
define dso_local noundef range(i64 -1, -9223372036854775808) i64 @_ZN4mold9MultiGlob17find_aho_corasickESt17basic_string_viewIcSt11char_traitsIcEE(ptr noundef nonnull readonly align 8 captures(none) dereferenceable(62) %0, i64 %1, ptr readonly %2) local_unnamed_addr #6 align 2 {
  %4 = getelementptr inbounds nuw i8, ptr %0, i64 24
  %5 = load ptr, ptr %4, align 8, !tbaa !15
  %6 = getelementptr inbounds nuw i8, ptr %5, i64 16
  %7 = load ptr, ptr %6, align 8, !tbaa !15
  %.not13.i = icmp eq ptr %7, null
  br i1 %.not13.i, label %.lr.ph.i, label %._crit_edge.i

._crit_edge.i:                                    ; preds = %12, %3
  %.lcssa.i = phi ptr [ %7, %3 ], [ %14, %12 ]
  %8 = load i64, ptr %.lcssa.i, align 8, !tbaa !17
  %9 = tail call i64 @llvm.smax.i64(i64 %8, i64 -1)
  br label %"_ZZN4mold9MultiGlob17find_aho_corasickESt17basic_string_viewIcSt11char_traitsIcEEENK3$_0clEh.exit"

.lr.ph.i:                                         ; preds = %3, %12
  %.348 = phi ptr [ %11, %12 ], [ %5, %3 ]
  %10 = getelementptr inbounds nuw i8, ptr %.348, i64 8
  %11 = load ptr, ptr %10, align 8, !tbaa !19
  %.not.i = icmp eq ptr %11, null
  br i1 %.not.i, label %"_ZZN4mold9MultiGlob17find_aho_corasickESt17basic_string_viewIcSt11char_traitsIcEEENK3$_0clEh.exit", label %12

12:                                               ; preds = %.lr.ph.i
  %13 = getelementptr inbounds nuw i8, ptr %11, i64 16
  %14 = load ptr, ptr %13, align 8, !tbaa !15
  %.not1.i = icmp eq ptr %14, null
  br i1 %.not1.i, label %.lr.ph.i, label %._crit_edge.i, !llvm.loop !21

"_ZZN4mold9MultiGlob17find_aho_corasickESt17basic_string_viewIcSt11char_traitsIcEEENK3$_0clEh.exit": ; preds = %.lr.ph.i, %._crit_edge.i
  %.449 = phi ptr [ %.lcssa.i, %._crit_edge.i ], [ %.348, %.lr.ph.i ]
  %.344 = phi i64 [ %9, %._crit_edge.i ], [ -1, %.lr.ph.i ]
  %15 = getelementptr inbounds nuw i8, ptr %2, i64 %1
  %.not71 = icmp samesign eq i64 %1, 0
  br i1 %.not71, label %._crit_edge, label %.lr.ph

.lr.ph:                                           ; preds = %"_ZZN4mold9MultiGlob17find_aho_corasickESt17basic_string_viewIcSt11char_traitsIcEEENK3$_0clEh.exit"
  %16 = getelementptr inbounds nuw i8, ptr %0, i64 61
  %17 = load i8, ptr %16, align 1, !tbaa !23, !range !44, !noundef !45
  %18 = trunc nuw i8 %17 to i1
  br i1 %18, label %.lr.ph.split, label %.lr.ph.split.us

.lr.ph.split.us:                                  ; preds = %.lr.ph, %.loopexit.us
  %.01374.us = phi ptr [ %32, %.loopexit.us ], [ %2, %.lr.ph ]
  %.04173.us = phi i64 [ %.243.ph.us, %.loopexit.us ], [ %.344, %.lr.ph ]
  %.04572.us = phi ptr [ %.247.ph.us, %.loopexit.us ], [ %.449, %.lr.ph ]
  %19 = load i8, ptr %.01374.us, align 1, !tbaa !46
  %20 = zext i8 %19 to i64
  %21 = getelementptr inbounds nuw i8, ptr %.04572.us, i64 16
  %22 = getelementptr inbounds nuw [256 x %"class.std::unique_ptr"], ptr %21, i64 0, i64 %20
  %23 = load ptr, ptr %22, align 8, !tbaa !15
  %.not13.i20.us = icmp eq ptr %23, null
  br i1 %.not13.i20.us, label %.lr.ph.i23.us, label %._crit_edge.i21.us

.lr.ph.i23.us:                                    ; preds = %.lr.ph.split.us, %26
  %.550.us = phi ptr [ %25, %26 ], [ %.04572.us, %.lr.ph.split.us ]
  %24 = getelementptr inbounds nuw i8, ptr %.550.us, i64 8
  %25 = load ptr, ptr %24, align 8, !tbaa !19
  %.not.i24.us = icmp eq ptr %25, null
  br i1 %.not.i24.us, label %.loopexit.us, label %26

26:                                               ; preds = %.lr.ph.i23.us
  %27 = getelementptr inbounds nuw i8, ptr %25, i64 16
  %28 = getelementptr inbounds nuw [256 x %"class.std::unique_ptr"], ptr %27, i64 0, i64 %20
  %29 = load ptr, ptr %28, align 8, !tbaa !15
  %.not1.i25.us = icmp eq ptr %29, null
  br i1 %.not1.i25.us, label %.lr.ph.i23.us, label %._crit_edge.i21.us, !llvm.loop !21

._crit_edge.i21.us:                               ; preds = %26, %.lr.ph.split.us
  %.lcssa.i22.us = phi ptr [ %23, %.lr.ph.split.us ], [ %29, %26 ]
  %30 = load i64, ptr %.lcssa.i22.us, align 8, !tbaa !17
  %31 = tail call i64 @llvm.smax.i64(i64 %.04173.us, i64 %30)
  br label %.loopexit.us

.loopexit.us:                                     ; preds = %.lr.ph.i23.us, %._crit_edge.i21.us
  %.247.ph.us = phi ptr [ %.lcssa.i22.us, %._crit_edge.i21.us ], [ %.550.us, %.lr.ph.i23.us ]
  %.243.ph.us = phi i64 [ %31, %._crit_edge.i21.us ], [ %.04173.us, %.lr.ph.i23.us ]
  %32 = getelementptr inbounds nuw i8, ptr %.01374.us, i64 1
  %.not.us = icmp eq ptr %32, %15
  br i1 %.not.us, label %._crit_edge, label %.lr.ph.split.us

.lr.ph.split:                                     ; preds = %.lr.ph, %.loopexit
  %.01374 = phi ptr [ %48, %.loopexit ], [ %2, %.lr.ph ]
  %.04173 = phi i64 [ %.243.ph, %.loopexit ], [ %.344, %.lr.ph ]
  %.04572 = phi ptr [ %.247.ph, %.loopexit ], [ %.449, %.lr.ph ]
  %33 = icmp eq ptr %.04572, %5
  br i1 %33, label %"_ZZN4mold9MultiGlob17find_aho_corasickESt17basic_string_viewIcSt11char_traitsIcEEENK3$_0clEh.exit26", label %34

34:                                               ; preds = %.lr.ph.split
  %35 = load i8, ptr %.01374, align 1, !tbaa !46
  %36 = zext i8 %35 to i64
  %37 = getelementptr inbounds nuw i8, ptr %.04572, i64 16
  %38 = getelementptr inbounds nuw [256 x %"class.std::unique_ptr"], ptr %37, i64 0, i64 %36
  %39 = load ptr, ptr %38, align 8, !tbaa !15
  %.not13.i20 = icmp eq ptr %39, null
  br i1 %.not13.i20, label %.lr.ph.i23, label %._crit_edge.i21

._crit_edge.i21:                                  ; preds = %44, %34
  %.lcssa.i22 = phi ptr [ %39, %34 ], [ %47, %44 ]
  %40 = load i64, ptr %.lcssa.i22, align 8, !tbaa !17
  %41 = tail call i64 @llvm.smax.i64(i64 %.04173, i64 %40)
  br label %.loopexit

.lr.ph.i23:                                       ; preds = %34, %44
  %.550 = phi ptr [ %43, %44 ], [ %.04572, %34 ]
  %42 = getelementptr inbounds nuw i8, ptr %.550, i64 8
  %43 = load ptr, ptr %42, align 8, !tbaa !19
  %.not.i24 = icmp eq ptr %43, null
  br i1 %.not.i24, label %.loopexit, label %44

44:                                               ; preds = %.lr.ph.i23
  %45 = getelementptr inbounds nuw i8, ptr %43, i64 16
  %46 = getelementptr inbounds nuw [256 x %"class.std::unique_ptr"], ptr %45, i64 0, i64 %36
  %47 = load ptr, ptr %46, align 8, !tbaa !15
  %.not1.i25 = icmp eq ptr %47, null
  br i1 %.not1.i25, label %.lr.ph.i23, label %._crit_edge.i21, !llvm.loop !21

.loopexit:                                        ; preds = %.lr.ph.i23, %._crit_edge.i21
  %.247.ph = phi ptr [ %.lcssa.i22, %._crit_edge.i21 ], [ %.550, %.lr.ph.i23 ]
  %.243.ph = phi i64 [ %41, %._crit_edge.i21 ], [ %.04173, %.lr.ph.i23 ]
  %48 = getelementptr inbounds nuw i8, ptr %.01374, i64 1
  %.not = icmp eq ptr %48, %15
  br i1 %.not, label %._crit_edge, label %.lr.ph.split

._crit_edge:                                      ; preds = %.loopexit.us, %.loopexit, %"_ZZN4mold9MultiGlob17find_aho_corasickESt17basic_string_viewIcSt11char_traitsIcEEENK3$_0clEh.exit"
  %.045.lcssa = phi ptr [ %.449, %"_ZZN4mold9MultiGlob17find_aho_corasickESt17basic_string_viewIcSt11char_traitsIcEEENK3$_0clEh.exit" ], [ %.247.ph, %.loopexit ], [ %.247.ph.us, %.loopexit.us ]
  %.041.lcssa = phi i64 [ %.344, %"_ZZN4mold9MultiGlob17find_aho_corasickESt17basic_string_viewIcSt11char_traitsIcEEENK3$_0clEh.exit" ], [ %.243.ph, %.loopexit ], [ %.243.ph.us, %.loopexit.us ]
  %49 = getelementptr inbounds nuw i8, ptr %.045.lcssa, i64 16
  %50 = load ptr, ptr %49, align 8, !tbaa !15
  %.not13.i28 = icmp eq ptr %50, null
  br i1 %.not13.i28, label %.lr.ph.i31, label %._crit_edge.i29

._crit_edge.i29:                                  ; preds = %56, %._crit_edge
  %.lcssa.i30 = phi ptr [ %50, %._crit_edge ], [ %58, %56 ]
  %51 = load i64, ptr %.lcssa.i30, align 8, !tbaa !17
  %52 = tail call i64 @llvm.smax.i64(i64 %.041.lcssa, i64 %51)
  br label %"_ZZN4mold9MultiGlob17find_aho_corasickESt17basic_string_viewIcSt11char_traitsIcEEENK3$_0clEh.exit26"

.lr.ph.i31:                                       ; preds = %._crit_edge, %56
  %53 = phi ptr [ %55, %56 ], [ %.045.lcssa, %._crit_edge ]
  %54 = getelementptr inbounds nuw i8, ptr %53, i64 8
  %55 = load ptr, ptr %54, align 8, !tbaa !19
  %.not.i32 = icmp eq ptr %55, null
  br i1 %.not.i32, label %"_ZZN4mold9MultiGlob17find_aho_corasickESt17basic_string_viewIcSt11char_traitsIcEEENK3$_0clEh.exit26", label %56

56:                                               ; preds = %.lr.ph.i31
  %57 = getelementptr inbounds nuw i8, ptr %55, i64 16
  %58 = load ptr, ptr %57, align 8, !tbaa !15
  %.not1.i33 = icmp eq ptr %58, null
  br i1 %.not1.i33, label %.lr.ph.i31, label %._crit_edge.i29, !llvm.loop !21

"_ZZN4mold9MultiGlob17find_aho_corasickESt17basic_string_viewIcSt11char_traitsIcEEENK3$_0clEh.exit26": ; preds = %.lr.ph.split, %.lr.ph.i31, %._crit_edge.i29
  %.3 = phi i64 [ %52, %._crit_edge.i29 ], [ %.041.lcssa, %.lr.ph.i31 ], [ %.04173, %.lr.ph.split ]
  ret i64 %.3
}